target datalayout = "e-m:e-p270:32:32-p271:32:32-p272:64:64-i64:64-i128:128-f80:128-n8:16:32:64-S128"
target triple = "x86_64-pc-linux-gnu"

%struct.Vec_Wrd_t_ = type { i32, i32, ptr }

@Extra_Truth6ChangePhase.Truth6 = internal global [6 x i64] [i64 -6148914691236517206, i64 -3689348814741910324, i64 -1085102592571150096, i64 -71777214294589696, i64 -281470681808896, i64 -4294967296], align 16

; Function Attrs: inlinehint nounwind uwtable
define internal ptr @Vec_WrdAlloc(i32 noundef %0) #3 {
  %2 = alloca i32, align 4
  %3 = alloca ptr, align 8
  store i32 %0, ptr %2, align 4, !tbaa !24
  call void @llvm.lifetime.start.p0(i64 8, ptr %3) #12
  %4 = call noalias ptr @malloc(i64 noundef 16) #14
  store ptr %4, ptr %3, align 8, !tbaa !40
  %5 = load i32, ptr %2, align 4, !tbaa !24
  %6 = icmp sgt i32 %5, 0
  br i1 %6, label %7, label %11

7:                                                ; preds = %1
  %8 = load i32, ptr %2, align 4, !tbaa !24
  %9 = icmp slt i32 %8, 16
  br i1 %9, label %10, label %11

10:                                               ; preds = %7
  store i32 16, ptr %2, align 4, !tbaa !24
  br label %11

11:                                               ; preds = %10, %7, %1
  %12 = load ptr, ptr %3, align 8, !tbaa !40
  %13 = getelementptr inbounds nuw %struct.Vec_Wrd_t_, ptr %12, i32 0, i32 1
  store i32 0, ptr %13, align 4, !tbaa !41
  %14 = load i32, ptr %2, align 4, !tbaa !24
  %15 = load ptr, ptr %3, align 8, !tbaa !40
  %16 = getelementptr inbounds nuw %struct.Vec_Wrd_t_, ptr %15, i32 0, i32 0
  store i32 %14, ptr %16, align 8, !tbaa !44
  %17 = load ptr, ptr %3, align 8, !tbaa !40
  %18 = getelementptr inbounds nuw %struct.Vec_Wrd_t_, ptr %17, i32 0, i32 0
  %19 = load i32, ptr %18, align 8, !tbaa !44
  %20 = icmp ne i32 %19, 0
  br i1 %20, label %21, label %28

21:                                               ; preds = %11
  %22 = load ptr, ptr %3, align 8, !tbaa !40
  %23 = getelementptr inbounds nuw %struct.Vec_Wrd_t_, ptr %22, i32 0, i32 0
  %24 = load i32, ptr %23, align 8, !tbaa !44
  %25 = sext i32 %24 to i64
  %26 = mul i64 8, %25
  %27 = call noalias ptr @malloc(i64 noundef %26) #14
  br label %29

28:                                               ; preds = %11
  br label %29

29:                                               ; preds = %28, %21
  %30 = phi ptr [ %27, %21 ], [ null, %28 ]
  %31 = load ptr, ptr %3, align 8, !tbaa !40
  %32 = getelementptr inbounds nuw %struct.Vec_Wrd_t_, ptr %31, i32 0, i32 2
  store ptr %30, ptr %32, align 8, !tbaa !45
  %33 = load ptr, ptr %3, align 8, !tbaa !40
  call void @llvm.lifetime.end.p0(i64 8, ptr %3) #12
  ret ptr %33
}

; Function Attrs: inlinehint nounwind uwtable
define internal i64 @Vec_WrdEntry(ptr noundef %0, i32 noundef %1) #3 {
  %3 = alloca ptr, align 8
  %4 = alloca i32, align 4
  store ptr %0, ptr %3, align 8, !tbaa !40
  store i32 %1, ptr %4, align 4, !tbaa !24
  %5 = load ptr, ptr %3, align 8, !tbaa !40
  %6 = getelementptr inbounds nuw %struct.Vec_Wrd_t_, ptr %5, i32 0, i32 2
  %7 = load ptr, ptr %6, align 8, !tbaa !45
  %8 = load i32, ptr %4, align 4, !tbaa !24
  %9 = sext i32 %8 to i64
  %10 = getelementptr inbounds i64, ptr %7, i64 %9
  %11 = load i64, ptr %10, align 8, !tbaa !55
  ret i64 %11
}

; Function Attrs: inlinehint nounwind uwtable
define internal i32 @Vec_WrdSize(ptr noundef %0) #3 {
  %2 = alloca ptr, align 8
  store ptr %0, ptr %2, align 8, !tbaa !40
  %3 = load ptr, ptr %2, align 8, !tbaa !40
  %4 = getelementptr inbounds nuw %struct.Vec_Wrd_t_, ptr %3, i32 0, i32 1
  %5 = load i32, ptr %4, align 4, !tbaa !41
  ret i32 %5
}

; Function Attrs: inlinehint nounwind uwtable
define internal i64 @Extra_Truth6ChangePhase(i64 noundef %0, i32 noundef %1) #3 {
  %3 = alloca i64, align 8
  %4 = alloca i32, align 4
  store i64 %0, ptr %3, align 8, !tbaa !55
  store i32 %1, ptr %4, align 4, !tbaa !24
  %5 = load i64, ptr %3, align 8, !tbaa !55
  %6 = load i32, ptr %4, align 4, !tbaa !24
  %7 = sext i32 %6 to i64
  %8 = getelementptr inbounds [6 x i64], ptr @Extra_Truth6ChangePhase.Truth6, i64 0, i64 %7
  %9 = load i64, ptr %8, align 8, !tbaa !55
  %10 = xor i64 %9, -1
  %11 = and i64 %5, %10
  %12 = load i32, ptr %4, align 4, !tbaa !24
  %13 = shl i32 1, %12
  %14 = zext i32 %13 to i64
  %15 = shl i64 %11, %14
  %16 = load i64, ptr %3, align 8, !tbaa !55
  %17 = load i32, ptr %4, align 4, !tbaa !24
  %18 = sext i32 %17 to i64
  %19 = getelementptr inbounds [6 x i64], ptr @Extra_Truth6ChangePhase.Truth6, i64 0, i64 %18
  %20 = load i64, ptr %19, align 8, !tbaa !55
  %21 = and i64 %16, %20
  %22 = load i32, ptr %4, align 4, !tbaa !24
  %23 = shl i32 1, %22
  %24 = zext i32 %23 to i64
  %25 = lshr i64 %21, %24
  %26 = or i64 %15, %25
  ret i64 %26
}

; Function Attrs: inlinehint nounwind uwtable
define internal void @Vec_WrdWriteEntry(ptr noundef %0, i32 noundef %1, i64 noundef %2) #3 {
  %4 = alloca ptr, align 8
  %5 = alloca i32, align 4
  %6 = alloca i64, align 8
  store ptr %0, ptr %4, align 8, !tbaa !40
  store i32 %1, ptr %5, align 4, !tbaa !24
  store i64 %2, ptr %6, align 8, !tbaa !55
  %7 = load i64, ptr %6, align 8, !tbaa !55
  %8 = load ptr, ptr %4, align 8, !tbaa !40
  %9 = getelementptr inbounds nuw %struct.Vec_Wrd_t_, ptr %8, i32 0, i32 2
  %10 = load ptr, ptr %9, align 8, !tbaa !45
  %11 = load i32, ptr %5, align 4, !tbaa !24
  %12 = sext i32 %11 to i64
  %13 = getelementptr inbounds i64, ptr %10, i64 %12
  store i64 %7, ptr %13, align 8, !tbaa !55
  ret void
}

; Function Attrs: inlinehint nounwind uwtable
define internal i64 @Extra_Truth6SwapAdjacent(i64 noundef %0, i32 noundef %1) #3 {
  %3 = alloca i64, align 8
  %4 = alloca i32, align 4
  store i64 %0, ptr %3, align 8, !tbaa !55
  store i32 %1, ptr %4, align 4, !tbaa !24
  %5 = load i64, ptr %3, align 8, !tbaa !55
  %6 = load i32, ptr %4, align 4, !tbaa !24
  %7 = sext i32 %6 to i64
  %8 = getelementptr inbounds [5 x [3 x i64]], ptr @Extra_Truth6SwapAdjacent.PMasks, i64 0, i64 %7
  %9 = getelementptr inbounds [3 x i64], ptr %8, i64 0, i64 0
  %10 = load i64, ptr %9, align 8, !tbaa !55
  %11 = and i64 %5, %10
  %12 = load i64, ptr %3, align 8, !tbaa !55
  %13 = load i32, ptr %4, align 4, !tbaa !24
  %14 = sext i32 %13 to i64
  %15 = getelementptr inbounds [5 x [3 x i64]], ptr @Extra_Truth6SwapAdjacent.PMasks, i64 0, i64 %14
  %16 = getelementptr inbounds [3 x i64], ptr %15, i64 0, i64 1
  %17 = load i64, ptr %16, align 8, !tbaa !55
  %18 = and i64 %12, %17
  %19 = load i32, ptr %4, align 4, !tbaa !24
  %20 = shl i32 1, %19
  %21 = zext i32 %20 to i64
  %22 = shl i64 %18, %21
  %23 = or i64 %11, %22
  %24 = load i64, ptr %3, align 8, !tbaa !55
  %25 = load i32, ptr %4, align 4, !tbaa !24
  %26 = sext i32 %25 to i64
  %27 = getelementptr inbounds [5 x [3 x i64]], ptr @Extra_Truth6SwapAdjacent.PMasks, i64 0, i64 %26
  %28 = getelementptr inbounds [3 x i64], ptr %27, i64 0, i64 2
  %29 = load i64, ptr %28, align 8, !tbaa !55
  %30 = and i64 %24, %29
  %31 = load i32, ptr %4, align 4, !tbaa !24
  %32 = shl i32 1, %31
  %33 = zext i32 %32 to i64
  %34 = lshr i64 %30, %33
  %35 = or i64 %23, %34
  ret i64 %35
}

; Function Attrs: inlinehint nounwind uwtable
define internal ptr @Vec_WrdStart(i32 noundef %0) #3 {
  %2 = alloca i32, align 4
  %3 = alloca ptr, align 8
  store i32 %0, ptr %2, align 4, !tbaa !24
  call void @llvm.lifetime.start.p0(i64 8, ptr %3) #12
  %4 = load i32, ptr %2, align 4, !tbaa !24
  %5 = call ptr @Vec_WrdAlloc(i32 noundef %4)
  store ptr %5, ptr %3, align 8, !tbaa !40
  %6 = load i32, ptr %2, align 4, !tbaa !24
  %7 = load ptr, ptr %3, align 8, !tbaa !40
  %8 = getelementptr inbounds nuw %struct.Vec_Wrd_t_, ptr %7, i32 0, i32 1
  store i32 %6, ptr %8, align 4, !tbaa !41
  %9 = load ptr, ptr %3, align 8, !tbaa !40
  %10 = getelementptr inbounds nuw %struct.Vec_Wrd_t_, ptr %9, i32 0, i32 2
  %11 = load ptr, ptr %10, align 8, !tbaa !45
  %12 = load i32, ptr %2, align 4, !tbaa !24
  %13 = sext i32 %12 to i64
  %14 = mul i64 8, %13
  call void @llvm.memset.p0.i64(ptr align 8 %11, i8 0, i64 %14, i1 false)
  %15 = load ptr, ptr %3, align 8, !tbaa !40
  call void @llvm.lifetime.end.p0(i64 8, ptr %3) #12
  ret ptr %15
}

; Function Attrs: nounwind uwtable
define ptr @Extra_Truth6AllConfigs(i64 noundef %0, ptr noundef %1, ptr noundef %2, i32 noundef %3) #0 {
  %5 = alloca i64, align 8
  %6 = alloca ptr, align 8
  %7 = alloca ptr, align 8
  %8 = alloca i32, align 4
  %9 = alloca i32, align 4
  %10 = alloca i32, align 4
  %11 = alloca ptr, align 8
  %12 = alloca i64, align 8
  %13 = alloca i64, align 8
  %14 = alloca i64, align 8
  %15 = alloca i32, align 4
  %16 = alloca i32, align 4
  %17 = alloca i32, align 4
  %18 = alloca i32, align 4
  %19 = alloca i64, align 8
  store i64 %0, ptr %5, align 8, !tbaa !55
  store ptr %1, ptr %6, align 8, !tbaa !51
  store ptr %2, ptr %7, align 8, !tbaa !51
  store i32 %3, ptr %8, align 4, !tbaa !24
  call void @llvm.lifetime.start.p0(i64 4, ptr %9) #12
  %20 = load i32, ptr %8, align 4, !tbaa !24
  %21 = call i32 @Extra_Factorial(i32 noundef %20)
  store i32 %21, ptr %9, align 4, !tbaa !24
  call void @llvm.lifetime.start.p0(i64 4, ptr %10) #12
  %22 = load i32, ptr %8, align 4, !tbaa !24
  %23 = shl i32 1, %22
  store i32 %23, ptr %10, align 4, !tbaa !24
  call void @llvm.lifetime.start.p0(i64 8, ptr %11) #12
  %24 = load i32, ptr %9, align 4, !tbaa !24
  %25 = load i32, ptr %10, align 4, !tbaa !24
  %26 = mul nsw i32 %24, %25
  %27 = call ptr @Vec_WrdStart(i32 noundef %26)
  store ptr %27, ptr %11, align 8, !tbaa !40
  call void @llvm.lifetime.start.p0(i64 8, ptr %12) #12
  %28 = load i64, ptr %5, align 8, !tbaa !55
  store i64 %28, ptr %12, align 8, !tbaa !55
  call void @llvm.lifetime.start.p0(i64 8, ptr %13) #12
  call void @llvm.lifetime.start.p0(i64 8, ptr %14) #12
  call void @llvm.lifetime.start.p0(i64 4, ptr %15) #12
  call void @llvm.lifetime.start.p0(i64 4, ptr %16) #12
  call void @llvm.lifetime.start.p0(i64 4, ptr %17) #12
  %29 = load i64, ptr %12, align 8, !tbaa !55
  store i64 %29, ptr %13, align 8, !tbaa !55
  store i32 0, ptr %15, align 4, !tbaa !24
  br label %30

30:                                               ; preds = %74, %4
  %31 = load i32, ptr %15, align 4, !tbaa !24
  %32 = load i32, ptr %9, align 4, !tbaa !24
  %33 = icmp slt i32 %31, %32
  br i1 %33, label %34, label %77

34:                                               ; preds = %30
  %35 = load i64, ptr %12, align 8, !tbaa !55
  %36 = load ptr, ptr %7, align 8, !tbaa !51
  %37 = load i32, ptr %15, align 4, !tbaa !24
  %38 = sext i32 %37 to i64
  %39 = getelementptr inbounds i32, ptr %36, i64 %38
  %40 = load i32, ptr %39, align 4, !tbaa !24
  %41 = call i64 @Extra_Truth6SwapAdjacent(i64 noundef %35, i32 noundef %40)
  store i64 %41, ptr %12, align 8, !tbaa !55
  store i32 0, ptr %17, align 4, !tbaa !24
  %42 = load i64, ptr %12, align 8, !tbaa !55
  store i64 %42, ptr %14, align 8, !tbaa !55
  store i32 0, ptr %16, align 4, !tbaa !24
  br label %43

43:                                               ; preds = %70, %34
  %44 = load i32, ptr %16, align 4, !tbaa !24
  %45 = load i32, ptr %10, align 4, !tbaa !24
  %46 = icmp slt i32 %44, %45
  br i1 %46, label %47, label %73

47:                                               ; preds = %43
  %48 = load ptr, ptr %11, align 8, !tbaa !40
  %49 = load i32, ptr %15, align 4, !tbaa !24
  %50 = load i32, ptr %8, align 4, !tbaa !24
  %51 = shl i32 %49, %50
  %52 = load i32, ptr %17, align 4, !tbaa !24
  %53 = or i32 %51, %52
  %54 = load i64, ptr %12, align 8, !tbaa !55
  call void @Vec_WrdWriteEntry(ptr noundef %48, i32 noundef %53, i64 noundef %54)
  %55 = load i64, ptr %12, align 8, !tbaa !55
  %56 = load ptr, ptr %6, align 8, !tbaa !51
  %57 = load i32, ptr %16, align 4, !tbaa !24
  %58 = sext i32 %57 to i64
  %59 = getelementptr inbounds i32, ptr %56, i64 %58
  %60 = load i32, ptr %59, align 4, !tbaa !24
  %61 = call i64 @Extra_Truth6ChangePhase(i64 noundef %55, i32 noundef %60)
  store i64 %61, ptr %12, align 8, !tbaa !55
  %62 = load ptr, ptr %6, align 8, !tbaa !51
  %63 = load i32, ptr %16, align 4, !tbaa !24
  %64 = sext i32 %63 to i64
  %65 = getelementptr inbounds i32, ptr %62, i64 %64
  %66 = load i32, ptr %65, align 4, !tbaa !24
  %67 = shl i32 1, %66
  %68 = load i32, ptr %17, align 4, !tbaa !24
  %69 = xor i32 %68, %67
  store i32 %69, ptr %17, align 4, !tbaa !24
  br label %70

70:                                               ; preds = %47
  %71 = load i32, ptr %16, align 4, !tbaa !24
  %72 = add nsw i32 %71, 1
  store i32 %72, ptr %16, align 4, !tbaa !24
  br label %43, !llvm.loop !108

73:                                               ; preds = %43
  br label %74

74:                                               ; preds = %73
  %75 = load i32, ptr %15, align 4, !tbaa !24
  %76 = add nsw i32 %75, 1
  store i32 %76, ptr %15, align 4, !tbaa !24
  br label %30, !llvm.loop !109

77:                                               ; preds = %30
  %78 = load i64, ptr %5, align 8, !tbaa !55
  %79 = icmp ne i64 %78, 0
  br i1 %79, label %80, label %97

80:                                               ; preds = %77
  call void @llvm.lifetime.start.p0(i64 4, ptr %18) #12
  call void @llvm.lifetime.start.p0(i64 8, ptr %19) #12
  store i32 0, ptr %18, align 4, !tbaa !24
  br label %81

81:                                               ; preds = %93, %80
  %82 = load i32, ptr %18, align 4, !tbaa !24
  %83 = load ptr, ptr %11, align 8, !tbaa !40
  %84 = call i32 @Vec_WrdSize(ptr noundef %83)
  %85 = icmp slt i32 %82, %84
  br i1 %85, label %86, label %90

86:                                               ; preds = %81
  %87 = load ptr, ptr %11, align 8, !tbaa !40
  %88 = load i32, ptr %18, align 4, !tbaa !24
  %89 = call i64 @Vec_WrdEntry(ptr noundef %87, i32 noundef %88)
  store i64 %89, ptr %19, align 8, !tbaa !55
  br label %90

90:                                               ; preds = %86, %81
  %91 = phi i1 [ false, %81 ], [ true, %86 ]
  br i1 %91, label %92, label %96

92:                                               ; preds = %90
  br label %93

93:                                               ; preds = %92
  %94 = load i32, ptr %18, align 4, !tbaa !24
  %95 = add nsw i32 %94, 1
  store i32 %95, ptr %18, align 4, !tbaa !24
  br label %81, !llvm.loop !110

96:                                               ; preds = %90
  call void @llvm.lifetime.end.p0(i64 8, ptr %19) #12
  call void @llvm.lifetime.end.p0(i64 4, ptr %18) #12
  br label %97

97:                                               ; preds = %96, %77
  %98 = load ptr, ptr %11, align 8, !tbaa !40
  call void @llvm.lifetime.end.p0(i64 4, ptr %17) #12
  call void @llvm.lifetime.end.p0(i64 4, ptr %16) #12
  call void @llvm.lifetime.end.p0(i64 4, ptr %15) #12
  call void @llvm.lifetime.end.p0(i64 8, ptr %14) #12
  call void @llvm.lifetime.end.p0(i64 8, ptr %13) #12
  call void @llvm.lifetime.end.p0(i64 8, ptr %12) #12
  call void @llvm.lifetime.end.p0(i64 8, ptr %11) #12
  call void @llvm.lifetime.end.p0(i64 4, ptr %10) #12
  call void @llvm.lifetime.end.p0(i64 4, ptr %9) #12
  ret ptr %98
}