; Function Attrs: nounwind uwtable
define noalias noundef ptr @Extra_Truth6AllConfigs(i64 noundef %0, ptr noundef readonly captures(none) %1, ptr noundef readonly captures(none) %2, i32 noundef %3) local_unnamed_addr #5 {
  %5 = tail call i32 @Extra_Factorial(i32 noundef %3) #28
  %6 = shl nuw i32 1, %3
  %7 = shl i32 %5, %3
  %8 = tail call noalias dereferenceable_or_null(16) ptr @malloc(i64 noundef 16) #27
  %9 = add i32 %7, -1
  %or.cond.i.i = icmp ult i32 %9, 15
  %spec.store.select.i.i = select i1 %or.cond.i.i, i32 16, i32 %7
  store i32 %spec.store.select.i.i, ptr %8, align 8, !tbaa !32
  %.not.i.i = icmp eq i32 %spec.store.select.i.i, 0
  br i1 %.not.i.i, label %Vec_WrdStart.exit, label %10

10:                                               ; preds = %4
  %11 = sext i32 %spec.store.select.i.i to i64
  %12 = shl nsw i64 %11, 3
  %13 = tail call noalias ptr @malloc(i64 noundef %12) #27
  br label %Vec_WrdStart.exit

Vec_WrdStart.exit:                                ; preds = %4, %10
  %14 = phi ptr [ %13, %10 ], [ null, %4 ]
  %15 = getelementptr inbounds nuw i8, ptr %8, i64 4
  %16 = getelementptr inbounds nuw i8, ptr %8, i64 8
  store ptr %14, ptr %16, align 8, !tbaa !33
  store i32 %7, ptr %15, align 4, !tbaa !29
  %17 = sext i32 %7 to i64
  %18 = shl nsw i64 %17, 3
  tail call void @llvm.memset.p0.i64(ptr align 8 %14, i8 0, i64 %18, i1 false)
  %19 = icmp slt i32 %5, 1
  %.not46 = icmp eq i32 %3, 31
  %or.cond = or i1 %19, %.not46
  br i1 %or.cond, label %.critedge, label %.lr.ph.us.preheader

.lr.ph.us.preheader:                              ; preds = %Vec_WrdStart.exit
  %smax = tail call i32 @llvm.smax.i32(i32 %6, i32 1)
  %wide.trip.count52 = zext nneg i32 %5 to i64
  %wide.trip.count = zext nneg i32 %smax to i64
  br label %.lr.ph.us

.lr.ph.us:                                        ; preds = %.lr.ph.us.preheader, %._crit_edge.us
  %indvars.iv49 = phi i64 [ 0, %.lr.ph.us.preheader ], [ %indvars.iv.next50, %._crit_edge.us ]
  %.043.us = phi i64 [ %0, %.lr.ph.us.preheader ], [ %56, %._crit_edge.us ]
  %20 = getelementptr inbounds nuw i32, ptr %2, i64 %indvars.iv49
  %21 = load i32, ptr %20, align 4, !tbaa !37
  %22 = sext i32 %21 to i64
  %23 = getelementptr inbounds [5 x [3 x i64]], ptr @Extra_Truth6SwapAdjacent.PMasks, i64 0, i64 %22
  %24 = load i64, ptr %23, align 8, !tbaa !46
  %25 = and i64 %24, %.043.us
  %26 = getelementptr inbounds nuw i8, ptr %23, i64 8
  %27 = load i64, ptr %26, align 8, !tbaa !46
  %28 = and i64 %27, %.043.us
  %29 = shl nuw i32 1, %21
  %30 = zext i32 %29 to i64
  %31 = shl i64 %28, %30
  %32 = or i64 %31, %25
  %33 = getelementptr inbounds nuw i8, ptr %23, i64 16
  %34 = load i64, ptr %33, align 8, !tbaa !46
  %35 = and i64 %34, %.043.us
  %36 = lshr i64 %35, %30
  %37 = or i64 %32, %36
  %38 = trunc nuw nsw i64 %indvars.iv49 to i32
  %39 = shl i32 %38, %3
  br label %40

40:                                               ; preds = %.lr.ph.us, %40
  %indvars.iv = phi i64 [ 0, %.lr.ph.us ], [ %indvars.iv.next, %40 ]
  %.141.us = phi i64 [ %37, %.lr.ph.us ], [ %56, %40 ]
  %.03440.us = phi i32 [ 0, %.lr.ph.us ], [ %57, %40 ]
  %41 = or i32 %.03440.us, %39
  %42 = sext i32 %41 to i64
  %43 = getelementptr inbounds i64, ptr %14, i64 %42
  store i64 %.141.us, ptr %43, align 8, !tbaa !46
  %44 = getelementptr inbounds nuw i32, ptr %1, i64 %indvars.iv
  %45 = load i32, ptr %44, align 4, !tbaa !37
  %46 = sext i32 %45 to i64
  %47 = getelementptr inbounds [6 x i64], ptr @s_Truths6, i64 0, i64 %46
  %48 = load i64, ptr %47, align 8, !tbaa !46
  %49 = xor i64 %48, -1
  %50 = and i64 %.141.us, %49
  %51 = shl nuw i32 1, %45
  %52 = zext i32 %51 to i64
  %53 = shl i64 %50, %52
  %54 = and i64 %48, %.141.us
  %55 = lshr i64 %54, %52
  %56 = or i64 %53, %55
  %57 = xor i32 %51, %.03440.us
  %indvars.iv.next = add nuw nsw i64 %indvars.iv, 1
  %exitcond.not = icmp eq i64 %indvars.iv.next, %wide.trip.count
  br i1 %exitcond.not, label %._crit_edge.us, label %40, !llvm.loop !93

._crit_edge.us:                                   ; preds = %40
  %indvars.iv.next50 = add nuw nsw i64 %indvars.iv49, 1
  %exitcond53.not = icmp eq i64 %indvars.iv.next50, %wide.trip.count52
  br i1 %exitcond53.not, label %.critedge, label %.lr.ph.us, !llvm.loop !94

.critedge:                                        ; preds = %._crit_edge.us, %Vec_WrdStart.exit
  ret ptr %8
}